; Function Attrs: mustprogress uwtable
define internal noundef i32 @_ZN2cv12cpu_baselineL9normL2_8sEPKaPKhPiii(ptr noundef readonly captures(none) %0, ptr noundef readonly %1, ptr noundef captures(none) %2, i32 noundef %3, i32 noundef %4) #0 personality ptr @__gxx_personality_v0 {
  %6 = alloca %"class.cv::utils::trace::details::Region", align 8
  call void @llvm.lifetime.start.p0(i64 16, ptr nonnull %6) #17
  call void @_ZN2cv5utils5trace7details6RegionC1ERKNS3_21LocationStaticStorageE(ptr noundef nonnull align 8 dereferenceable(12) %6, ptr noundef nonnull align 8 dereferenceable(32) @_ZZN2cv12cpu_baselineL9normL2_8sEPKaPKhPiiiE25__cv_trace_location_fn643)
  %7 = load i32, ptr %2, align 4, !tbaa !11
  %.not.i = icmp eq ptr %1, null
  br i1 %.not.i, label %19, label %.preheader27.i

.preheader27.i:                                   ; preds = %5
  %8 = icmp sgt i32 %3, 0
  br i1 %8, label %.lr.ph34.i, label %.loopexit

.lr.ph34.i:                                       ; preds = %.preheader27.i
  %9 = icmp sgt i32 %4, 0
  %10 = sext i32 %4 to i64
  br i1 %9, label %.lr.ph34.split.us.preheader.i, label %.loopexit

.lr.ph34.split.us.preheader.i:                    ; preds = %.lr.ph34.i
  %wide.trip.count42.i = zext nneg i32 %3 to i64
  %wide.trip.count.i = zext nneg i32 %4 to i64
  br label %.lr.ph34.split.us.i

.lr.ph34.split.us.i:                              ; preds = %..loopexit_crit_edge.us.i, %.lr.ph34.split.us.preheader.i
  %indvars.iv39.i = phi i64 [ 0, %.lr.ph34.split.us.preheader.i ], [ %indvars.iv.next40.i, %..loopexit_crit_edge.us.i ]
  %.033.us.i = phi ptr [ %0, %.lr.ph34.split.us.preheader.i ], [ %18, %..loopexit_crit_edge.us.i ]
  %.131.us.i = phi i32 [ %7, %.lr.ph34.split.us.preheader.i ], [ %.3.us.i, %..loopexit_crit_edge.us.i ]
  %11 = getelementptr inbounds nuw i8, ptr %1, i64 %indvars.iv39.i
  %12 = load i8, ptr %11, align 1, !tbaa !12
  %.not26.us.i = icmp eq i8 %12, 0
  br i1 %.not26.us.i, label %..loopexit_crit_edge.us.i, label %.preheader.us.i

.preheader.us.i:                                  ; preds = %.lr.ph34.split.us.i, %.preheader.us.i
  %indvars.iv.i = phi i64 [ %indvars.iv.next.i, %.preheader.us.i ], [ 0, %.lr.ph34.split.us.i ]
  %.229.us.i = phi i32 [ %17, %.preheader.us.i ], [ %.131.us.i, %.lr.ph34.split.us.i ]
  %13 = getelementptr inbounds nuw i8, ptr %.033.us.i, i64 %indvars.iv.i
  %14 = load i8, ptr %13, align 1, !tbaa !12
  %15 = sext i8 %14 to i32
  %16 = mul nsw i32 %15, %15
  %17 = add nsw i32 %16, %.229.us.i
  %indvars.iv.next.i = add nuw nsw i64 %indvars.iv.i, 1
  %exitcond.not.i = icmp eq i64 %indvars.iv.next.i, %wide.trip.count.i
  br i1 %exitcond.not.i, label %..loopexit_crit_edge.us.i, label %.preheader.us.i, !llvm.loop !65

..loopexit_crit_edge.us.i:                        ; preds = %.preheader.us.i, %.lr.ph34.split.us.i
  %.3.us.i = phi i32 [ %.131.us.i, %.lr.ph34.split.us.i ], [ %17, %.preheader.us.i ]
  %indvars.iv.next40.i = add nuw nsw i64 %indvars.iv39.i, 1
  %18 = getelementptr inbounds nuw i8, ptr %.033.us.i, i64 %10
  %exitcond43.not.i = icmp eq i64 %indvars.iv.next40.i, %wide.trip.count42.i
  br i1 %exitcond43.not.i, label %.loopexit, label %.lr.ph34.split.us.i, !llvm.loop !66

19:                                               ; preds = %5
  %20 = mul nsw i32 %4, %3
  %21 = icmp sgt i32 %20, 0
  br i1 %21, label %.lr.ph.preheader.i.i, label %_ZNK2cv12cpu_baseline11NormL2_SIMDIaiEclEPKai.exit.i

.lr.ph.preheader.i.i:                             ; preds = %19
  %wide.trip.count.i.i = zext nneg i32 %20 to i64
  br label %.lr.ph.i.i

.lr.ph.i.i:                                       ; preds = %.lr.ph.i.i, %.lr.ph.preheader.i.i
  %indvars.iv.i.i = phi i64 [ 0, %.lr.ph.preheader.i.i ], [ %indvars.iv.next.i.i, %.lr.ph.i.i ]
  %.010.i.i = phi i32 [ 0, %.lr.ph.preheader.i.i ], [ %26, %.lr.ph.i.i ]
  %22 = getelementptr inbounds nuw i8, ptr %0, i64 %indvars.iv.i.i
  %23 = load i8, ptr %22, align 1, !tbaa !12
  %24 = sext i8 %23 to i32
  %25 = mul nsw i32 %24, %24
  %26 = add nuw nsw i32 %25, %.010.i.i
  %indvars.iv.next.i.i = add nuw nsw i64 %indvars.iv.i.i, 1
  %exitcond.not.i.i = icmp eq i64 %indvars.iv.next.i.i, %wide.trip.count.i.i
  br i1 %exitcond.not.i.i, label %_ZNK2cv12cpu_baseline11NormL2_SIMDIaiEclEPKai.exit.i, label %.lr.ph.i.i, !llvm.loop !67

_ZNK2cv12cpu_baseline11NormL2_SIMDIaiEclEPKai.exit.i: ; preds = %.lr.ph.i.i, %19
  %.0.lcssa.i.i = phi i32 [ 0, %19 ], [ %26, %.lr.ph.i.i ]
  %27 = add nsw i32 %.0.lcssa.i.i, %7
  br label %.loopexit

.loopexit:                                        ; preds = %..loopexit_crit_edge.us.i, %_ZNK2cv12cpu_baseline11NormL2_SIMDIaiEclEPKai.exit.i, %.lr.ph34.i, %.preheader27.i
  %.024.i = phi i32 [ %27, %_ZNK2cv12cpu_baseline11NormL2_SIMDIaiEclEPKai.exit.i ], [ %7, %.preheader27.i ], [ %7, %.lr.ph34.i ], [ %.3.us.i, %..loopexit_crit_edge.us.i ]
  store i32 %.024.i, ptr %2, align 4, !tbaa !11
  %28 = getelementptr inbounds nuw i8, ptr %6, i64 8
  %29 = load i32, ptr %28, align 8, !tbaa !7
  %.not.i6 = icmp eq i32 %29, 0
  br i1 %.not.i6, label %_ZN2cv5utils5trace7details6RegionD2Ev.exit, label %30

30:                                               ; preds = %.loopexit
  invoke void @_ZN2cv5utils5trace7details6Region7destroyEv(ptr noundef nonnull align 8 dereferenceable(12) %6)
          to label %_ZN2cv5utils5trace7details6RegionD2Ev.exit unwind label %31

31:                                               ; preds = %30
  %32 = landingpad { ptr, i32 }
          catch ptr null
  %33 = extractvalue { ptr, i32 } %32, 0
  call void @__clang_call_terminate(ptr %33) #18
  unreachable

_ZN2cv5utils5trace7details6RegionD2Ev.exit:       ; preds = %.loopexit, %30
  call void @llvm.lifetime.end.p0(i64 16, ptr nonnull %6) #17
  ret i32 0
}